; Function Attrs: mustprogress uwtable
define noundef nonnull align 8 dereferenceable(32) ptr @_ZN7rocksdb22WriteStallStatsMapKeys45CFL0FileCountLimitDelaysWithOngoingCompactionB5cxx11Ev() local_unnamed_addr #3 align 2 personality ptr @__gxx_personality_v0 {
  %1 = alloca %"class.std::allocator.0", align 1
  %2 = load atomic i8, ptr @_ZGVZN7rocksdb22WriteStallStatsMapKeys45CFL0FileCountLimitDelaysWithOngoingCompactionB5cxx11EvE3retB5cxx11 acquire, align 8
  %3 = icmp eq i8 %2, 0
  br i1 %3, label %4, label %9, !prof !20

4:                                                ; preds = %0
  %5 = tail call i32 @__cxa_guard_acquire(ptr nonnull @_ZGVZN7rocksdb22WriteStallStatsMapKeys45CFL0FileCountLimitDelaysWithOngoingCompactionB5cxx11EvE3retB5cxx11) #16
  %.not = icmp eq i32 %5, 0
  br i1 %.not, label %9, label %6

6:                                                ; preds = %4
  call void @llvm.lifetime.start.p0(i64 1, ptr nonnull %1) #16
  invoke void @_ZNSt7__cxx1112basic_stringIcSt11char_traitsIcESaIcEEC2IS3_EEPKcRKS3_(ptr noundef nonnull align 8 dereferenceable(32) @_ZZN7rocksdb22WriteStallStatsMapKeys45CFL0FileCountLimitDelaysWithOngoingCompactionB5cxx11EvE3retB5cxx11, ptr noundef nonnull @.str.49, ptr noundef nonnull align 1 dereferenceable(1) %1)
          to label %7 unwind label %10

7:                                                ; preds = %6
  call void @llvm.lifetime.end.p0(i64 1, ptr nonnull %1) #16
  %8 = call i32 @__cxa_atexit(ptr nonnull @_ZNSt7__cxx1112basic_stringIcSt11char_traitsIcESaIcEED2Ev, ptr nonnull @_ZZN7rocksdb22WriteStallStatsMapKeys45CFL0FileCountLimitDelaysWithOngoingCompactionB5cxx11EvE3retB5cxx11, ptr nonnull @__dso_handle) #16
  call void @__cxa_guard_release(ptr nonnull @_ZGVZN7rocksdb22WriteStallStatsMapKeys45CFL0FileCountLimitDelaysWithOngoingCompactionB5cxx11EvE3retB5cxx11) #16
  br label %9

9:                                                ; preds = %7, %4, %0
  ret ptr @_ZZN7rocksdb22WriteStallStatsMapKeys45CFL0FileCountLimitDelaysWithOngoingCompactionB5cxx11EvE3retB5cxx11

10:                                               ; preds = %6
  %11 = landingpad { ptr, i32 }
          cleanup
  call void @llvm.lifetime.end.p0(i64 1, ptr nonnull %1) #16
  call void @__cxa_guard_abort(ptr nonnull @_ZGVZN7rocksdb22WriteStallStatsMapKeys45CFL0FileCountLimitDelaysWithOngoingCompactionB5cxx11EvE3retB5cxx11) #16
  resume { ptr, i32 } %11
}